target datalayout = "e-m:e-p270:32:32-p271:32:32-p272:64:64-i64:64-i128:128-f80:128-n8:16:32:64-S128"
target triple = "x86_64-pc-linux-gnu"

; Function Attrs: inlinehint mustprogress nounwind uwtable
define internal noundef i32 @_ZL28ImTextCountUtf8BytesFromCharj(i32 noundef %0) #7 {
  %2 = alloca i32, align 4
  %3 = alloca i32, align 4
  store i32 %0, ptr %3, align 4, !tbaa !117
  %4 = load i32, ptr %3, align 4, !tbaa !117
  %5 = icmp ult i32 %4, 128
  br i1 %5, label %6, label %7

6:                                                ; preds = %1
  store i32 1, ptr %2, align 4
  br label %20

7:                                                ; preds = %1
  %8 = load i32, ptr %3, align 4, !tbaa !117
  %9 = icmp ult i32 %8, 2048
  br i1 %9, label %10, label %11

10:                                               ; preds = %7
  store i32 2, ptr %2, align 4
  br label %20

11:                                               ; preds = %7
  %12 = load i32, ptr %3, align 4, !tbaa !117
  %13 = icmp ult i32 %12, 65536
  br i1 %13, label %14, label %15

14:                                               ; preds = %11
  store i32 3, ptr %2, align 4
  br label %20

15:                                               ; preds = %11
  %16 = load i32, ptr %3, align 4, !tbaa !117
  %17 = icmp ule i32 %16, 1114111
  br i1 %17, label %18, label %19

18:                                               ; preds = %15
  store i32 4, ptr %2, align 4
  br label %20

19:                                               ; preds = %15
  store i32 3, ptr %2, align 4
  br label %20

20:                                               ; preds = %19, %18, %14, %10, %6
  %21 = load i32, ptr %2, align 4
  ret i32 %21
}

; Function Attrs: mustprogress uwtable
define dso_local noundef i32 @_Z27ImTextCountUtf8BytesFromStrPKtS0_(ptr noundef %0, ptr noundef %1) #0 {
  %3 = alloca ptr, align 8
  %4 = alloca ptr, align 8
  %5 = alloca i32, align 4
  %6 = alloca i32, align 4
  store ptr %0, ptr %3, align 8, !tbaa !297
  store ptr %1, ptr %4, align 8, !tbaa !297
  call void @llvm.lifetime.start.p0(i64 4, ptr %5) #16
  store i32 0, ptr %5, align 4, !tbaa !117
  br label %7

7:                                                ; preds = %35, %2
  %8 = load ptr, ptr %4, align 8, !tbaa !297
  %9 = icmp ne ptr %8, null
  br i1 %9, label %10, label %14

10:                                               ; preds = %7
  %11 = load ptr, ptr %3, align 8, !tbaa !297
  %12 = load ptr, ptr %4, align 8, !tbaa !297
  %13 = icmp ult ptr %11, %12
  br i1 %13, label %14, label %18

14:                                               ; preds = %10, %7
  %15 = load ptr, ptr %3, align 8, !tbaa !297
  %16 = load i16, ptr %15, align 2, !tbaa !252
  %17 = icmp ne i16 %16, 0
  br label %18

18:                                               ; preds = %14, %10
  %19 = phi i1 [ false, %10 ], [ %17, %14 ]
  br i1 %19, label %20, label %36

20:                                               ; preds = %18
  call void @llvm.lifetime.start.p0(i64 4, ptr %6) #16
  %21 = load ptr, ptr %3, align 8, !tbaa !297
  %22 = getelementptr inbounds nuw i16, ptr %21, i32 1
  store ptr %22, ptr %3, align 8, !tbaa !297
  %23 = load i16, ptr %21, align 2, !tbaa !252
  %24 = zext i16 %23 to i32
  store i32 %24, ptr %6, align 4, !tbaa !117
  %25 = load i32, ptr %6, align 4, !tbaa !117
  %26 = icmp ult i32 %25, 128
  br i1 %26, label %27, label %30

27:                                               ; preds = %20
  %28 = load i32, ptr %5, align 4, !tbaa !117
  %29 = add nsw i32 %28, 1
  store i32 %29, ptr %5, align 4, !tbaa !117
  br label %35

30:                                               ; preds = %20
  %31 = load i32, ptr %6, align 4, !tbaa !117
  %32 = call noundef i32 @_ZL28ImTextCountUtf8BytesFromCharj(i32 noundef %31)
  %33 = load i32, ptr %5, align 4, !tbaa !117
  %34 = add nsw i32 %33, %32
  store i32 %34, ptr %5, align 4, !tbaa !117
  br label %35

35:                                               ; preds = %30, %27
  call void @llvm.lifetime.end.p0(i64 4, ptr %6) #16
  br label %7, !llvm.loop !320

36:                                               ; preds = %18
  %37 = load i32, ptr %5, align 4, !tbaa !117
  call void @llvm.lifetime.end.p0(i64 4, ptr %5) #16
  ret i32 %37
}