; Function Attrs: mustprogress nofree norecurse nosync nounwind willreturn memory(argmem: read) uwtable
define dso_local noundef i32 @_Z27ImTextCountUtf8BytesFromStrPKtS0_(ptr noundef readonly captures(address) %0, ptr noundef readnone captures(address) %1) local_unnamed_addr #16 {
  %.not = icmp eq ptr %1, null
  %3 = icmp ult ptr %0, %1
  %or.cond14 = or i1 %.not, %3
  br i1 %or.cond14, label %.lr.ph, label %.critedge

.lr.ph:                                           ; preds = %2
  br i1 %.not, label %.lr.ph.split.us, label %.lr.ph.split

.lr.ph.split.us:                                  ; preds = %.lr.ph
  %4 = load i16, ptr %0, align 2, !tbaa !247
  %.not13.us19 = icmp eq i16 %4, 0
  br i1 %.not13.us19, label %.critedge, label %.lr.ph22

.lr.ph22:                                         ; preds = %.lr.ph.split.us, %.lr.ph22
  %5 = phi i16 [ %9, %.lr.ph22 ], [ %4, %.lr.ph.split.us ]
  %.0915.us21 = phi i32 [ %.1.us, %.lr.ph22 ], [ 0, %.lr.ph.split.us ]
  %.016.us20 = phi ptr [ %6, %.lr.ph22 ], [ %0, %.lr.ph.split.us ]
  %6 = getelementptr inbounds nuw i8, ptr %.016.us20, i64 2
  %7 = icmp ult i16 %5, 128
  %8 = icmp ult i16 %5, 2048
  %.0.i.us = select i1 %8, i32 2, i32 3
  %.1.v.us = select i1 %7, i32 1, i32 %.0.i.us
  %.1.us = add nuw nsw i32 %.1.v.us, %.0915.us21
  %9 = load i16, ptr %6, align 2, !tbaa !247
  %.not13.us = icmp eq i16 %9, 0
  br i1 %.not13.us, label %.critedge, label %.lr.ph22

.lr.ph.split:                                     ; preds = %.lr.ph, %11
  %.016 = phi ptr [ %12, %11 ], [ %0, %.lr.ph ]
  %.0915 = phi i32 [ %.1, %11 ], [ 0, %.lr.ph ]
  %10 = load i16, ptr %.016, align 2, !tbaa !247
  %.not13 = icmp eq i16 %10, 0
  br i1 %.not13, label %.critedge, label %11

11:                                               ; preds = %.lr.ph.split
  %12 = getelementptr inbounds nuw i8, ptr %.016, i64 2
  %13 = icmp ult i16 %10, 128
  %14 = icmp ult i16 %10, 2048
  %.0.i = select i1 %14, i32 2, i32 3
  %.1.v = select i1 %13, i32 1, i32 %.0.i
  %.1 = add nuw nsw i32 %.1.v, %.0915
  %15 = icmp ult ptr %12, %1
  br i1 %15, label %.lr.ph.split, label %.critedge, !llvm.loop !264

.critedge:                                        ; preds = %.lr.ph.split, %11, %.lr.ph22, %.lr.ph.split.us, %2
  %.09.lcssa = phi i32 [ 0, %2 ], [ 0, %.lr.ph.split.us ], [ %.1.us, %.lr.ph22 ], [ %.1, %11 ], [ %.0915, %.lr.ph.split ]
  ret i32 %.09.lcssa
}